; Function Attrs: mustprogress uwtable
define hidden noundef zeroext i1 @_ZN12seq_rewriter7has_varERK10ref_vectorI4expr11ast_managerE(ptr noundef nonnull align 8 dereferenceable(497) %0, ptr noundef nonnull readonly align 8 captures(none) dereferenceable(16) %1) local_unnamed_addr #3 align 2 {
  %3 = alloca ptr, align 8
  %4 = getelementptr inbounds nuw i8, ptr %1, i64 8
  %5 = load ptr, ptr %4, align 8, !tbaa !89
  %6 = icmp eq ptr %5, null
  br i1 %6, label %._crit_edge, label %_ZNK15ref_vector_coreI4expr19ref_manager_wrapperIS0_11ast_managerEE3endEv.exit

_ZNK15ref_vector_coreI4expr19ref_manager_wrapperIS0_11ast_managerEE3endEv.exit: ; preds = %2
  %7 = getelementptr inbounds i8, ptr %5, i64 -4
  %8 = load i32, ptr %7, align 4, !tbaa !101
  %9 = zext i32 %8 to i64
  %10 = getelementptr inbounds nuw ptr, ptr %5, i64 %9
  %.not18.not = icmp eq i32 %8, 0
  br i1 %.not18.not, label %._crit_edge, label %.lr.ph

.lr.ph:                                           ; preds = %_ZNK15ref_vector_coreI4expr19ref_manager_wrapperIS0_11ast_managerEE3endEv.exit, %.lr.ph
  %.01419 = phi ptr [ %13, %.lr.ph ], [ %5, %_ZNK15ref_vector_coreI4expr19ref_manager_wrapperIS0_11ast_managerEE3endEv.exit ]
  %11 = load ptr, ptr %.01419, align 8, !tbaa !3
  call void @llvm.lifetime.start.p0(i64 8, ptr nonnull %3)
  store ptr %11, ptr %3, align 8, !tbaa !3
  %12 = call range(i64 0, -4294967294) i64 @_ZN12seq_rewriter10min_lengthEjPKP4expr(ptr noundef nonnull align 8 dereferenceable(497) %0, i32 noundef 1, ptr noundef nonnull %3)
  call void @llvm.lifetime.end.p0(i64 8, ptr nonnull %3)
  %.not17 = icmp ult i64 %12, 4294967296
  %13 = getelementptr inbounds nuw i8, ptr %.01419, i64 8
  %.not.not = icmp eq ptr %13, %10
  %or.cond = select i1 %.not17, i1 true, i1 %.not.not
  br i1 %or.cond, label %._crit_edge, label %.lr.ph

._crit_edge:                                      ; preds = %.lr.ph, %2, %_ZNK15ref_vector_coreI4expr19ref_manager_wrapperIS0_11ast_managerEE3endEv.exit
  %.not.lcssa = phi i1 [ false, %_ZNK15ref_vector_coreI4expr19ref_manager_wrapperIS0_11ast_managerEE3endEv.exit ], [ false, %2 ], [ %.not17, %.lr.ph ]
  ret i1 %.not.lcssa
}